target datalayout = "e-m:e-p270:32:32-p271:32:32-p272:64:64-i64:64-i128:128-f80:128-n8:16:32:64-S128"
target triple = "x86_64-pc-linux-gnu"

%struct.ResFile = type { ptr, ptr, ptr, i32, i32, ptr, i32, i32 }
%struct.SResource = type { ptr, i8, i8, i32, i32, i32, i32, i32, ptr, %struct.UString }
%struct.UString = type { ptr, i32, i32 }
%struct.SRBRoot = type { ptr, ptr, i32, i32, i8, i8, i8, ptr, ptr, i32, i32, i32, i32, i32, %"class.icu_77::UnicodeString", i32, ptr, i32, i32, i32, ptr }
%"class.icu_77::UnicodeString" = type { %"class.icu_77::Replaceable", %"union.icu_77::UnicodeString::StackBufferOrFields" }
%"class.icu_77::Replaceable" = type { %"class.icu_77::UObject" }
%"class.icu_77::UObject" = type { ptr }
%"union.icu_77::UnicodeString::StackBufferOrFields" = type { %struct.anon.0, [32 x i8] }
%struct.anon.0 = type { i16, i32, i32, ptr }
%struct.KeyMapEntry = type { i32, i32 }

; Function Attrs: mustprogress nounwind uwtable
define dso_local noundef i32 @_ZNK7SRBRoot9makeRes16Ej(ptr noundef nonnull align 8 dereferenceable(176) %0, i32 noundef %1) #4 align 2 {
  %3 = alloca i32, align 4
  %4 = alloca ptr, align 8
  %5 = alloca i32, align 4
  %6 = alloca i32, align 4
  %7 = alloca i32, align 4
  %8 = alloca i32, align 4
  store ptr %0, ptr %4, align 8, !tbaa !39
  store i32 %1, ptr %5, align 4, !tbaa !23
  %9 = load ptr, ptr %4, align 8
  %10 = load i32, ptr %5, align 4, !tbaa !23
  %11 = icmp eq i32 %10, 0
  br i1 %11, label %12, label %13

12:                                               ; preds = %2
  store i32 0, ptr %3, align 4
  br label %49

13:                                               ; preds = %2
  call void @llvm.lifetime.start.p0(i64 4, ptr %6) #3
  %14 = load i32, ptr %5, align 4, !tbaa !23
  %15 = lshr i32 %14, 28
  store i32 %15, ptr %6, align 4, !tbaa !23
  call void @llvm.lifetime.start.p0(i64 4, ptr %7) #3
  %16 = load i32, ptr %5, align 4, !tbaa !23
  %17 = and i32 %16, 268435455
  store i32 %17, ptr %7, align 4, !tbaa !23
  %18 = load i32, ptr %6, align 4, !tbaa !23
  %19 = icmp eq i32 %18, 6
  br i1 %19, label %20, label %47

20:                                               ; preds = %13
  %21 = load i32, ptr %7, align 4, !tbaa !23
  %22 = getelementptr inbounds nuw %struct.SRBRoot, ptr %9, i32 0, i32 17
  %23 = load i32, ptr %22, align 8, !tbaa !109
  %24 = icmp slt i32 %21, %23
  br i1 %24, label %25, label %33

25:                                               ; preds = %20
  %26 = load i32, ptr %7, align 4, !tbaa !23
  %27 = getelementptr inbounds nuw %struct.SRBRoot, ptr %9, i32 0, i32 18
  %28 = load i32, ptr %27, align 4, !tbaa !116
  %29 = icmp slt i32 %26, %28
  br i1 %29, label %30, label %32

30:                                               ; preds = %25
  %31 = load i32, ptr %7, align 4, !tbaa !23
  store i32 %31, ptr %3, align 4
  store i32 1, ptr %8, align 4
  br label %48

32:                                               ; preds = %25
  br label %46

33:                                               ; preds = %20
  %34 = load i32, ptr %7, align 4, !tbaa !23
  %35 = getelementptr inbounds nuw %struct.SRBRoot, ptr %9, i32 0, i32 17
  %36 = load i32, ptr %35, align 8, !tbaa !109
  %37 = sub nsw i32 %34, %36
  %38 = getelementptr inbounds nuw %struct.SRBRoot, ptr %9, i32 0, i32 18
  %39 = load i32, ptr %38, align 4, !tbaa !116
  %40 = add nsw i32 %37, %39
  store i32 %40, ptr %7, align 4, !tbaa !23
  %41 = load i32, ptr %7, align 4, !tbaa !23
  %42 = icmp sle i32 %41, 65535
  br i1 %42, label %43, label %45

43:                                               ; preds = %33
  %44 = load i32, ptr %7, align 4, !tbaa !23
  store i32 %44, ptr %3, align 4
  store i32 1, ptr %8, align 4
  br label %48

45:                                               ; preds = %33
  br label %46

46:                                               ; preds = %45, %32
  br label %47

47:                                               ; preds = %46, %13
  store i32 -1, ptr %3, align 4
  store i32 1, ptr %8, align 4
  br label %48

48:                                               ; preds = %47, %43, %30
  call void @llvm.lifetime.end.p0(i64 4, ptr %7) #3
  call void @llvm.lifetime.end.p0(i64 4, ptr %6) #3
  br label %49

49:                                               ; preds = %48, %12
  %50 = load i32, ptr %3, align 4
  ret i32 %50
}

; Function Attrs: mustprogress nounwind uwtable
define dso_local noundef i32 @_ZNK7SRBRoot6mapKeyEi(ptr noundef nonnull align 8 dereferenceable(176) %0, i32 noundef %1) #4 align 2 {
  %3 = alloca i32, align 4
  %4 = alloca ptr, align 8
  %5 = alloca i32, align 4
  %6 = alloca ptr, align 8
  %7 = alloca i32, align 4
  %8 = alloca i32, align 4
  %9 = alloca i32, align 4
  %10 = alloca i32, align 4
  store ptr %0, ptr %4, align 8, !tbaa !39
  store i32 %1, ptr %5, align 4, !tbaa !23
  %11 = load ptr, ptr %4, align 8
  call void @llvm.lifetime.start.p0(i64 8, ptr %6) #3
  %12 = getelementptr inbounds nuw %struct.SRBRoot, ptr %11, i32 0, i32 8
  %13 = load ptr, ptr %12, align 8, !tbaa !117
  store ptr %13, ptr %6, align 8, !tbaa !118
  %14 = load ptr, ptr %6, align 8, !tbaa !118
  %15 = icmp eq ptr %14, null
  br i1 %15, label %16, label %18

16:                                               ; preds = %2
  %17 = load i32, ptr %5, align 4, !tbaa !23
  store i32 %17, ptr %3, align 4
  store i32 1, ptr %7, align 4
  br label %57

18:                                               ; preds = %2
  call void @llvm.lifetime.start.p0(i64 4, ptr %8) #3
  call void @llvm.lifetime.start.p0(i64 4, ptr %9) #3
  call void @llvm.lifetime.start.p0(i64 4, ptr %10) #3
  %19 = getelementptr inbounds nuw %struct.SRBRoot, ptr %11, i32 0, i32 16
  %20 = load ptr, ptr %19, align 8, !tbaa !119
  %21 = getelementptr inbounds nuw %struct.ResFile, ptr %20, i32 0, i32 4
  %22 = load i32, ptr %21, align 4, !tbaa !18
  store i32 %22, ptr %9, align 4, !tbaa !23
  %23 = load i32, ptr %9, align 4, !tbaa !23
  %24 = getelementptr inbounds nuw %struct.SRBRoot, ptr %11, i32 0, i32 12
  %25 = load i32, ptr %24, align 4, !tbaa !47
  %26 = add nsw i32 %23, %25
  store i32 %26, ptr %10, align 4, !tbaa !23
  br label %27

27:                                               ; preds = %49, %18
  %28 = load i32, ptr %9, align 4, !tbaa !23
  %29 = load i32, ptr %10, align 4, !tbaa !23
  %30 = sub nsw i32 %29, 1
  %31 = icmp slt i32 %28, %30
  br i1 %31, label %32, label %50

32:                                               ; preds = %27
  %33 = load i32, ptr %9, align 4, !tbaa !23
  %34 = load i32, ptr %10, align 4, !tbaa !23
  %35 = add nsw i32 %33, %34
  %36 = sdiv i32 %35, 2
  store i32 %36, ptr %8, align 4, !tbaa !23
  %37 = load i32, ptr %5, align 4, !tbaa !23
  %38 = load ptr, ptr %6, align 8, !tbaa !118
  %39 = load i32, ptr %8, align 4, !tbaa !23
  %40 = sext i32 %39 to i64
  %41 = getelementptr inbounds %struct.KeyMapEntry, ptr %38, i64 %40
  %42 = getelementptr inbounds nuw %struct.KeyMapEntry, ptr %41, i32 0, i32 0
  %43 = load i32, ptr %42, align 4, !tbaa !120
  %44 = icmp slt i32 %37, %43
  br i1 %44, label %45, label %47

45:                                               ; preds = %32
  %46 = load i32, ptr %8, align 4, !tbaa !23
  store i32 %46, ptr %10, align 4, !tbaa !23
  br label %49

47:                                               ; preds = %32
  %48 = load i32, ptr %8, align 4, !tbaa !23
  store i32 %48, ptr %9, align 4, !tbaa !23
  br label %49

49:                                               ; preds = %47, %45
  br label %27, !llvm.loop !122

50:                                               ; preds = %27
  %51 = load ptr, ptr %6, align 8, !tbaa !118
  %52 = load i32, ptr %9, align 4, !tbaa !23
  %53 = sext i32 %52 to i64
  %54 = getelementptr inbounds %struct.KeyMapEntry, ptr %51, i64 %53
  %55 = getelementptr inbounds nuw %struct.KeyMapEntry, ptr %54, i32 0, i32 1
  %56 = load i32, ptr %55, align 4, !tbaa !123
  store i32 %56, ptr %3, align 4
  store i32 1, ptr %7, align 4
  call void @llvm.lifetime.end.p0(i64 4, ptr %10) #3
  call void @llvm.lifetime.end.p0(i64 4, ptr %9) #3
  call void @llvm.lifetime.end.p0(i64 4, ptr %8) #3
  br label %57

57:                                               ; preds = %50, %16
  call void @llvm.lifetime.end.p0(i64 8, ptr %6) #3
  %58 = load i32, ptr %3, align 4
  ret i32 %58
}

; Function Attrs: mustprogress uwtable
define dso_local void @_ZN9SResource7write16EP7SRBRoot(ptr noundef nonnull align 8 dereferenceable(56) %0, ptr noundef %1) #5 align 2 {
  %3 = alloca ptr, align 8
  %4 = alloca ptr, align 8
  %5 = alloca i32, align 4
  store ptr %0, ptr %3, align 8, !tbaa !24
  store ptr %1, ptr %4, align 8, !tbaa !39
  %6 = load ptr, ptr %3, align 8
  %7 = getelementptr inbounds nuw %struct.SResource, ptr %6, i32 0, i32 5
  %8 = load i32, ptr %7, align 4, !tbaa !35
  %9 = icmp sge i32 %8, 0
  br i1 %9, label %10, label %51

10:                                               ; preds = %2
  %11 = load ptr, ptr %4, align 8, !tbaa !39
  %12 = getelementptr inbounds nuw %struct.SResource, ptr %6, i32 0, i32 5
  %13 = load i32, ptr %12, align 4, !tbaa !35
  %14 = call noundef i32 @_ZNK7SRBRoot6mapKeyEi(ptr noundef nonnull align 8 dereferenceable(176) %11, i32 noundef %13)
  %15 = getelementptr inbounds nuw %struct.SResource, ptr %6, i32 0, i32 5
  store i32 %14, ptr %15, align 4, !tbaa !35
  %16 = getelementptr inbounds nuw %struct.SResource, ptr %6, i32 0, i32 5
  %17 = load i32, ptr %16, align 4, !tbaa !35
  %18 = icmp sge i32 %17, 0
  br i1 %18, label %19, label %31

19:                                               ; preds = %10
  %20 = getelementptr inbounds nuw %struct.SResource, ptr %6, i32 0, i32 5
  %21 = load i32, ptr %20, align 4, !tbaa !35
  %22 = load ptr, ptr %4, align 8, !tbaa !39
  %23 = getelementptr inbounds nuw %struct.SRBRoot, ptr %22, i32 0, i32 13
  %24 = load i32, ptr %23, align 8, !tbaa !126
  %25 = icmp slt i32 %21, %24
  br i1 %25, label %26, label %30

26:                                               ; preds = %19
  %27 = getelementptr inbounds nuw %struct.SResource, ptr %6, i32 0, i32 5
  %28 = load i32, ptr %27, align 4, !tbaa !35
  %29 = getelementptr inbounds nuw %struct.SResource, ptr %6, i32 0, i32 6
  store i32 %28, ptr %29, align 8, !tbaa !36
  br label %30

30:                                               ; preds = %26, %19
  br label %50

31:                                               ; preds = %10
  call void @llvm.lifetime.start.p0(i64 4, ptr %5) #3
  %32 = getelementptr inbounds nuw %struct.SResource, ptr %6, i32 0, i32 5
  %33 = load i32, ptr %32, align 4, !tbaa !35
  %34 = and i32 %33, 2147483647
  store i32 %34, ptr %5, align 4, !tbaa !23
  %35 = load i32, ptr %5, align 4, !tbaa !23
  %36 = icmp sle i32 %35, 65535
  br i1 %36, label %37, label %49

37:                                               ; preds = %31
  %38 = load ptr, ptr %4, align 8, !tbaa !39
  %39 = getelementptr inbounds nuw %struct.SRBRoot, ptr %38, i32 0, i32 13
  %40 = load i32, ptr %39, align 8, !tbaa !126
  %41 = load i32, ptr %5, align 4, !tbaa !23
  %42 = add nsw i32 %41, %40
  store i32 %42, ptr %5, align 4, !tbaa !23
  %43 = load i32, ptr %5, align 4, !tbaa !23
  %44 = icmp sle i32 %43, 65535
  br i1 %44, label %45, label %48

45:                                               ; preds = %37
  %46 = load i32, ptr %5, align 4, !tbaa !23
  %47 = getelementptr inbounds nuw %struct.SResource, ptr %6, i32 0, i32 6
  store i32 %46, ptr %47, align 8, !tbaa !36
  br label %48

48:                                               ; preds = %45, %37
  br label %49

49:                                               ; preds = %48, %31
  call void @llvm.lifetime.end.p0(i64 4, ptr %5) #3
  br label %50

50:                                               ; preds = %49, %30
  br label %51

51:                                               ; preds = %50, %2
  %52 = getelementptr inbounds nuw %struct.SResource, ptr %6, i32 0, i32 3
  %53 = load i32, ptr %52, align 4, !tbaa !33
  %54 = icmp eq i32 %53, -1
  br i1 %54, label %55, label %60

55:                                               ; preds = %51
  %56 = load ptr, ptr %4, align 8, !tbaa !39
  %57 = load ptr, ptr %6, align 8, !tbaa !26
  %58 = getelementptr inbounds ptr, ptr %57, i64 3
  %59 = load ptr, ptr %58, align 8
  call void %59(ptr noundef nonnull align 8 dereferenceable(56) %6, ptr noundef %56)
  br label %60

60:                                               ; preds = %55, %51
  %61 = load ptr, ptr %4, align 8, !tbaa !39
  %62 = getelementptr inbounds nuw %struct.SResource, ptr %6, i32 0, i32 3
  %63 = load i32, ptr %62, align 4, !tbaa !33
  %64 = call noundef i32 @_ZNK7SRBRoot9makeRes16Ej(ptr noundef nonnull align 8 dereferenceable(176) %61, i32 noundef %63)
  %65 = getelementptr inbounds nuw %struct.SResource, ptr %6, i32 0, i32 4
  store i32 %64, ptr %65, align 8, !tbaa !34
  ret void
}