; Function Attrs: mustprogress uwtable
define dso_local void @_ZN9SResource7write16EP7SRBRoot(ptr noundef nonnull align 8 dereferenceable(56) %0, ptr noundef %1) local_unnamed_addr #7 align 2 {
  %3 = getelementptr inbounds nuw i8, ptr %0, i64 20
  %4 = load i32, ptr %3, align 4, !tbaa !36
  %5 = icmp sgt i32 %4, -1
  br i1 %5, label %6, label %44

6:                                                ; preds = %2
  %7 = getelementptr inbounds nuw i8, ptr %1, i64 40
  %8 = load ptr, ptr %7, align 8, !tbaa !77
  %9 = icmp eq ptr %8, null
  br i1 %9, label %_ZNK7SRBRoot6mapKeyEi.exit.thread, label %10

10:                                               ; preds = %6
  %11 = getelementptr inbounds nuw i8, ptr %1, i64 144
  %12 = load ptr, ptr %11, align 8, !tbaa !78
  %13 = getelementptr inbounds nuw i8, ptr %12, i64 28
  %14 = load i32, ptr %13, align 4, !tbaa !79
  %15 = getelementptr inbounds nuw i8, ptr %1, i64 60
  %16 = load i32, ptr %15, align 4, !tbaa !35
  %17 = add nsw i32 %16, %14
  %18 = add nsw i32 %17, -1
  %19 = icmp slt i32 %14, %18
  br i1 %19, label %.lr.ph.i, label %_ZNK7SRBRoot6mapKeyEi.exit

.lr.ph.i:                                         ; preds = %10, %.lr.ph.i
  %.020.i = phi i32 [ %..0.i, %.lr.ph.i ], [ %17, %10 ]
  %.01519.i = phi i32 [ %.015..i, %.lr.ph.i ], [ %14, %10 ]
  %20 = add nsw i32 %.01519.i, %.020.i
  %21 = sdiv i32 %20, 2
  %22 = sext i32 %21 to i64
  %23 = getelementptr inbounds %struct.KeyMapEntry, ptr %8, i64 %22
  %24 = load i32, ptr %23, align 4, !tbaa !82
  %25 = icmp slt i32 %4, %24
  %.015..i = select i1 %25, i32 %.01519.i, i32 %21
  %..0.i = select i1 %25, i32 %21, i32 %.020.i
  %26 = add nsw i32 %..0.i, -1
  %27 = icmp slt i32 %.015..i, %26
  br i1 %27, label %.lr.ph.i, label %_ZNK7SRBRoot6mapKeyEi.exit, !llvm.loop !84

_ZNK7SRBRoot6mapKeyEi.exit:                       ; preds = %.lr.ph.i, %10
  %.015.lcssa.i = phi i32 [ %14, %10 ], [ %.015..i, %.lr.ph.i ]
  %28 = sext i32 %.015.lcssa.i to i64
  %29 = getelementptr inbounds %struct.KeyMapEntry, ptr %8, i64 %28, i32 1
  %30 = load i32, ptr %29, align 4, !tbaa !85
  store i32 %30, ptr %3, align 4, !tbaa !36
  %31 = icmp sgt i32 %30, -1
  br i1 %31, label %_ZNK7SRBRoot6mapKeyEi.exit.thread, label %35

_ZNK7SRBRoot6mapKeyEi.exit.thread:                ; preds = %6, %_ZNK7SRBRoot6mapKeyEi.exit
  %.017.i13 = phi i32 [ %30, %_ZNK7SRBRoot6mapKeyEi.exit ], [ %4, %6 ]
  %32 = getelementptr inbounds nuw i8, ptr %1, i64 64
  %33 = load i32, ptr %32, align 8, !tbaa !88
  %34 = icmp slt i32 %.017.i13, %33
  br i1 %34, label %.sink.split, label %44

35:                                               ; preds = %_ZNK7SRBRoot6mapKeyEi.exit
  %36 = and i32 %30, 2147483647
  %37 = icmp samesign ult i32 %36, 65536
  br i1 %37, label %38, label %44

38:                                               ; preds = %35
  %39 = getelementptr inbounds nuw i8, ptr %1, i64 64
  %40 = load i32, ptr %39, align 8, !tbaa !88
  %41 = add nsw i32 %40, %36
  %42 = icmp slt i32 %41, 65536
  br i1 %42, label %.sink.split, label %44

.sink.split:                                      ; preds = %38, %_ZNK7SRBRoot6mapKeyEi.exit.thread
  %.sink = phi i32 [ %.017.i13, %_ZNK7SRBRoot6mapKeyEi.exit.thread ], [ %41, %38 ]
  %43 = getelementptr inbounds nuw i8, ptr %0, i64 24
  store i32 %.sink, ptr %43, align 8, !tbaa !37
  br label %44

44:                                               ; preds = %.sink.split, %35, %38, %_ZNK7SRBRoot6mapKeyEi.exit.thread, %2
  %45 = getelementptr inbounds nuw i8, ptr %0, i64 12
  %46 = load i32, ptr %45, align 4, !tbaa !20
  %47 = icmp eq i32 %46, -1
  br i1 %47, label %48, label %52

48:                                               ; preds = %44
  %49 = load ptr, ptr %0, align 8, !tbaa !9
  %50 = getelementptr inbounds nuw i8, ptr %49, i64 24
  %51 = load ptr, ptr %50, align 8
  tail call void %51(ptr noundef nonnull align 8 dereferenceable(56) %0, ptr noundef %1)
  %.pr = load i32, ptr %45, align 4, !tbaa !20
  br label %52

52:                                               ; preds = %48, %44
  %53 = phi i32 [ %.pr, %48 ], [ %46, %44 ]
  %54 = icmp eq i32 %53, 0
  br i1 %54, label %_ZNK7SRBRoot9makeRes16Ej.exit, label %55

55:                                               ; preds = %52
  %56 = and i32 %53, 268435455
  %.mask.i = and i32 %53, -268435456
  %57 = icmp eq i32 %.mask.i, 1610612736
  br i1 %57, label %58, label %72

58:                                               ; preds = %55
  %59 = getelementptr inbounds nuw i8, ptr %1, i64 152
  %60 = load i32, ptr %59, align 8, !tbaa !68
  %61 = icmp slt i32 %56, %60
  br i1 %61, label %62, label %66

62:                                               ; preds = %58
  %63 = getelementptr inbounds nuw i8, ptr %1, i64 156
  %64 = load i32, ptr %63, align 4, !tbaa !76
  %65 = icmp slt i32 %56, %64
  br i1 %65, label %_ZNK7SRBRoot9makeRes16Ej.exit, label %72

66:                                               ; preds = %58
  %67 = sub nsw i32 %56, %60
  %68 = getelementptr inbounds nuw i8, ptr %1, i64 156
  %69 = load i32, ptr %68, align 4, !tbaa !76
  %70 = add nsw i32 %69, %67
  %71 = icmp slt i32 %70, 65536
  br i1 %71, label %_ZNK7SRBRoot9makeRes16Ej.exit, label %72

72:                                               ; preds = %66, %62, %55
  br label %_ZNK7SRBRoot9makeRes16Ej.exit

_ZNK7SRBRoot9makeRes16Ej.exit:                    ; preds = %52, %62, %66, %72
  %.0.i = phi i32 [ 0, %52 ], [ -1, %72 ], [ %56, %62 ], [ %70, %66 ]
  %73 = getelementptr inbounds nuw i8, ptr %0, i64 16
  store i32 %.0.i, ptr %73, align 8, !tbaa !21
  ret void
}